target datalayout = "e-m:e-p270:32:32-p271:32:32-p272:64:64-i64:64-i128:128-f80:128-n8:16:32:64-S128"
target triple = "x86_64-pc-linux-gnu"

%struct.AVFilterLink = type { ptr, ptr, ptr, ptr, i32, i32, i32, i32, %struct.AVRational, i32, i32, i32, %struct.AVChannelLayout, %struct.AVRational, ptr, i32, %struct.AVFilterFormatsConfig, %struct.AVFilterFormatsConfig }
%struct.AVChannelLayout = type { i32, i32, %union.anon.1, ptr }
%union.anon.1 = type { i64 }
%struct.AVRational = type { i32, i32 }
%struct.AVFilterFormatsConfig = type { ptr, ptr, ptr, ptr, ptr }
%struct.AVFilterContext = type { ptr, ptr, ptr, ptr, ptr, i32, ptr, ptr, i32, ptr, ptr, i32, i32, ptr, ptr, ptr, ptr, i32, ptr, i32, i32 }
%struct.FlipContext = type { i32, i32 }
%struct.AVFrame = type { [8 x ptr], [8 x i32], ptr, i32, i32, i32, i32, i32, %struct.AVRational, i64, i64, %struct.AVRational, i32, ptr, i32, i32, [8 x ptr], ptr, i32, ptr, i32, i32, i32, i32, i32, i32, i32, i64, ptr, i32, ptr, ptr, i64, i64, i64, i64, ptr, %struct.AVChannelLayout, i64 }
%struct.AVPixFmtDescriptor = type { ptr, i8, i8, i8, i64, [4 x %struct.AVComponentDescriptor], ptr }
%struct.AVComponentDescriptor = type { i32, i32, i32, i32, i32 }

@.str.3 = private unnamed_addr constant [39 x i8] c"Bayer vertical flip needs even height\0A\00", align 1

; Function Attrs: nounwind uwtable
define internal i32 @flip_bayer(ptr noundef %0, ptr noundef %1) #0 {
  %3 = alloca i32, align 4
  %4 = alloca ptr, align 8
  %5 = alloca ptr, align 8
  %6 = alloca ptr, align 8
  %7 = alloca ptr, align 8
  %8 = alloca ptr, align 8
  %9 = alloca ptr, align 8
  %10 = alloca ptr, align 8
  %11 = alloca i32, align 4
  %12 = alloca i32, align 4
  %13 = alloca i32, align 4
  store ptr %0, ptr %4, align 8, !tbaa !4
  store ptr %1, ptr %5, align 8, !tbaa !35
  call void @llvm.lifetime.start.p0(i64 8, ptr %6) #5
  %14 = load ptr, ptr %4, align 8, !tbaa !4
  %15 = getelementptr inbounds nuw %struct.AVFilterLink, ptr %14, i32 0, i32 2
  %16 = load ptr, ptr %15, align 8, !tbaa !11
  store ptr %16, ptr %6, align 8, !tbaa !52
  call void @llvm.lifetime.start.p0(i64 8, ptr %7) #5
  %17 = load ptr, ptr %6, align 8, !tbaa !52
  %18 = getelementptr inbounds nuw %struct.AVFilterContext, ptr %17, i32 0, i32 7
  %19 = load ptr, ptr %18, align 8, !tbaa !34
  %20 = getelementptr inbounds ptr, ptr %19, i64 0
  %21 = load ptr, ptr %20, align 8, !tbaa !4
  store ptr %21, ptr %7, align 8, !tbaa !4
  call void @llvm.lifetime.start.p0(i64 8, ptr %8) #5
  call void @llvm.lifetime.start.p0(i64 8, ptr %9) #5
  %22 = load ptr, ptr %5, align 8, !tbaa !35
  %23 = getelementptr inbounds nuw %struct.AVFrame, ptr %22, i32 0, i32 0
  %24 = getelementptr inbounds [8 x ptr], ptr %23, i64 0, i64 0
  %25 = load ptr, ptr %24, align 8, !tbaa !39
  store ptr %25, ptr %9, align 8, !tbaa !39
  call void @llvm.lifetime.start.p0(i64 8, ptr %10) #5
  call void @llvm.lifetime.start.p0(i64 4, ptr %11) #5
  call void @llvm.lifetime.start.p0(i64 4, ptr %12) #5
  %26 = load ptr, ptr %7, align 8, !tbaa !4
  %27 = getelementptr inbounds nuw %struct.AVFilterLink, ptr %26, i32 0, i32 6
  %28 = load i32, ptr %27, align 8, !tbaa !53
  %29 = load ptr, ptr %4, align 8, !tbaa !4
  %30 = getelementptr inbounds nuw %struct.AVFilterLink, ptr %29, i32 0, i32 5
  %31 = load i32, ptr %30, align 4, !tbaa !45
  %32 = call ptr @av_pix_fmt_desc_get(i32 noundef %31)
  %33 = getelementptr inbounds nuw %struct.AVPixFmtDescriptor, ptr %32, i32 0, i32 5
  %34 = getelementptr inbounds [4 x %struct.AVComponentDescriptor], ptr %33, i64 0, i64 0
  %35 = getelementptr inbounds nuw %struct.AVComponentDescriptor, ptr %34, i32 0, i32 1
  %36 = load i32, ptr %35, align 4, !tbaa !54
  %37 = icmp sgt i32 %36, 1
  %38 = zext i1 %37 to i32
  %39 = shl i32 %28, %38
  store i32 %39, ptr %12, align 4, !tbaa !9
  %40 = load ptr, ptr %7, align 8, !tbaa !4
  %41 = getelementptr inbounds nuw %struct.AVFilterLink, ptr %40, i32 0, i32 7
  %42 = load i32, ptr %41, align 4, !tbaa !43
  %43 = and i32 %42, 1
  %44 = icmp ne i32 %43, 0
  br i1 %44, label %45, label %47

45:                                               ; preds = %2
  %46 = load ptr, ptr %6, align 8, !tbaa !52
  call void (ptr, i32, ptr, ...) @av_log(ptr noundef %46, i32 noundef 16, ptr noundef @.str.3)
  store i32 -1094995529, ptr %3, align 4
  store i32 1, ptr %13, align 4
  br label %130

47:                                               ; preds = %2
  %48 = load ptr, ptr %7, align 8, !tbaa !4
  %49 = load ptr, ptr %7, align 8, !tbaa !4
  %50 = getelementptr inbounds nuw %struct.AVFilterLink, ptr %49, i32 0, i32 6
  %51 = load i32, ptr %50, align 8, !tbaa !53
  %52 = load ptr, ptr %7, align 8, !tbaa !4
  %53 = getelementptr inbounds nuw %struct.AVFilterLink, ptr %52, i32 0, i32 7
  %54 = load i32, ptr %53, align 4, !tbaa !43
  %55 = call ptr @ff_get_video_buffer(ptr noundef %48, i32 noundef %51, i32 noundef %54)
  store ptr %55, ptr %8, align 8, !tbaa !35
  %56 = load ptr, ptr %8, align 8, !tbaa !35
  %57 = icmp ne ptr %56, null
  br i1 %57, label %59, label %58

58:                                               ; preds = %47
  call void @av_frame_free(ptr noundef %5)
  store i32 -12, ptr %3, align 4
  store i32 1, ptr %13, align 4
  br label %130

59:                                               ; preds = %47
  %60 = load ptr, ptr %8, align 8, !tbaa !35
  %61 = load ptr, ptr %5, align 8, !tbaa !35
  %62 = call i32 @av_frame_copy_props(ptr noundef %60, ptr noundef %61)
  %63 = load ptr, ptr %8, align 8, !tbaa !35
  %64 = getelementptr inbounds nuw %struct.AVFrame, ptr %63, i32 0, i32 0
  %65 = getelementptr inbounds [8 x ptr], ptr %64, i64 0, i64 0
  %66 = load ptr, ptr %65, align 8, !tbaa !39
  %67 = load ptr, ptr %8, align 8, !tbaa !35
  %68 = getelementptr inbounds nuw %struct.AVFrame, ptr %67, i32 0, i32 1
  %69 = getelementptr inbounds [8 x i32], ptr %68, i64 0, i64 0
  %70 = load i32, ptr %69, align 8, !tbaa !9
  %71 = load ptr, ptr %7, align 8, !tbaa !4
  %72 = getelementptr inbounds nuw %struct.AVFilterLink, ptr %71, i32 0, i32 7
  %73 = load i32, ptr %72, align 4, !tbaa !43
  %74 = sub nsw i32 %73, 2
  %75 = mul nsw i32 %70, %74
  %76 = sext i32 %75 to i64
  %77 = getelementptr inbounds i8, ptr %66, i64 %76
  store ptr %77, ptr %10, align 8, !tbaa !39
  store i32 0, ptr %11, align 4, !tbaa !9
  br label %78

78:                                               ; preds = %123, %59
  %79 = load i32, ptr %11, align 4, !tbaa !9
  %80 = load ptr, ptr %7, align 8, !tbaa !4
  %81 = getelementptr inbounds nuw %struct.AVFilterLink, ptr %80, i32 0, i32 7
  %82 = load i32, ptr %81, align 4, !tbaa !43
  %83 = ashr i32 %82, 1
  %84 = icmp slt i32 %79, %83
  br i1 %84, label %85, label %126

85:                                               ; preds = %78
  %86 = load ptr, ptr %10, align 8, !tbaa !39
  %87 = load ptr, ptr %9, align 8, !tbaa !39
  %88 = load i32, ptr %12, align 4, !tbaa !9
  %89 = sext i32 %88 to i64
  call void @llvm.memcpy.p0.p0.i64(ptr align 1 %86, ptr align 1 %87, i64 %89, i1 false)
  %90 = load ptr, ptr %10, align 8, !tbaa !39
  %91 = load ptr, ptr %8, align 8, !tbaa !35
  %92 = getelementptr inbounds nuw %struct.AVFrame, ptr %91, i32 0, i32 1
  %93 = getelementptr inbounds [8 x i32], ptr %92, i64 0, i64 0
  %94 = load i32, ptr %93, align 8, !tbaa !9
  %95 = sext i32 %94 to i64
  %96 = getelementptr inbounds i8, ptr %90, i64 %95
  %97 = load ptr, ptr %9, align 8, !tbaa !39
  %98 = load ptr, ptr %5, align 8, !tbaa !35
  %99 = getelementptr inbounds nuw %struct.AVFrame, ptr %98, i32 0, i32 1
  %100 = getelementptr inbounds [8 x i32], ptr %99, i64 0, i64 0
  %101 = load i32, ptr %100, align 8, !tbaa !9
  %102 = sext i32 %101 to i64
  %103 = getelementptr inbounds i8, ptr %97, i64 %102
  %104 = load i32, ptr %12, align 4, !tbaa !9
  %105 = sext i32 %104 to i64
  call void @llvm.memcpy.p0.p0.i64(ptr align 1 %96, ptr align 1 %103, i64 %105, i1 false)
  %106 = load ptr, ptr %5, align 8, !tbaa !35
  %107 = getelementptr inbounds nuw %struct.AVFrame, ptr %106, i32 0, i32 1
  %108 = getelementptr inbounds [8 x i32], ptr %107, i64 0, i64 0
  %109 = load i32, ptr %108, align 8, !tbaa !9
  %110 = mul nsw i32 2, %109
  %111 = load ptr, ptr %9, align 8, !tbaa !39
  %112 = sext i32 %110 to i64
  %113 = getelementptr inbounds i8, ptr %111, i64 %112
  store ptr %113, ptr %9, align 8, !tbaa !39
  %114 = load ptr, ptr %8, align 8, !tbaa !35
  %115 = getelementptr inbounds nuw %struct.AVFrame, ptr %114, i32 0, i32 1
  %116 = getelementptr inbounds [8 x i32], ptr %115, i64 0, i64 0
  %117 = load i32, ptr %116, align 8, !tbaa !9
  %118 = mul nsw i32 2, %117
  %119 = load ptr, ptr %10, align 8, !tbaa !39
  %120 = sext i32 %118 to i64
  %121 = sub i64 0, %120
  %122 = getelementptr inbounds i8, ptr %119, i64 %121
  store ptr %122, ptr %10, align 8, !tbaa !39
  br label %123

123:                                              ; preds = %85
  %124 = load i32, ptr %11, align 4, !tbaa !9
  %125 = add nsw i32 %124, 1
  store i32 %125, ptr %11, align 4, !tbaa !9
  br label %78, !llvm.loop !56

126:                                              ; preds = %78
  call void @av_frame_free(ptr noundef %5)
  %127 = load ptr, ptr %7, align 8, !tbaa !4
  %128 = load ptr, ptr %8, align 8, !tbaa !35
  %129 = call i32 @ff_filter_frame(ptr noundef %127, ptr noundef %128)
  store i32 %129, ptr %3, align 4
  store i32 1, ptr %13, align 4
  br label %130

130:                                              ; preds = %126, %58, %45
  call void @llvm.lifetime.end.p0(i64 4, ptr %12) #5
  call void @llvm.lifetime.end.p0(i64 4, ptr %11) #5
  call void @llvm.lifetime.end.p0(i64 8, ptr %10) #5
  call void @llvm.lifetime.end.p0(i64 8, ptr %9) #5
  call void @llvm.lifetime.end.p0(i64 8, ptr %8) #5
  call void @llvm.lifetime.end.p0(i64 8, ptr %7) #5
  call void @llvm.lifetime.end.p0(i64 8, ptr %6) #5
  %131 = load i32, ptr %3, align 4
  ret i32 %131
}

; Function Attrs: nounwind uwtable
define internal i32 @filter_frame(ptr noundef %0, ptr noundef %1) #0 {
  %3 = alloca i32, align 4
  %4 = alloca ptr, align 8
  %5 = alloca ptr, align 8
  %6 = alloca ptr, align 8
  %7 = alloca i32, align 4
  %8 = alloca i32, align 4
  %9 = alloca i32, align 4
  %10 = alloca i32, align 4
  store ptr %0, ptr %4, align 8, !tbaa !4
  store ptr %1, ptr %5, align 8, !tbaa !35
  call void @llvm.lifetime.start.p0(i64 8, ptr %6) #5
  %11 = load ptr, ptr %4, align 8, !tbaa !4
  %12 = getelementptr inbounds nuw %struct.AVFilterLink, ptr %11, i32 0, i32 2
  %13 = load ptr, ptr %12, align 8, !tbaa !11
  %14 = getelementptr inbounds nuw %struct.AVFilterContext, ptr %13, i32 0, i32 9
  %15 = load ptr, ptr %14, align 8, !tbaa !22
  store ptr %15, ptr %6, align 8, !tbaa !32
  call void @llvm.lifetime.start.p0(i64 4, ptr %7) #5
  %16 = load ptr, ptr %6, align 8, !tbaa !32
  %17 = getelementptr inbounds nuw %struct.FlipContext, ptr %16, i32 0, i32 1
  %18 = load i32, ptr %17, align 4, !tbaa !42
  %19 = icmp ne i32 %18, 0
  br i1 %19, label %20, label %24

20:                                               ; preds = %2
  %21 = load ptr, ptr %4, align 8, !tbaa !4
  %22 = load ptr, ptr %5, align 8, !tbaa !35
  %23 = call i32 @flip_bayer(ptr noundef %21, ptr noundef %22)
  store i32 %23, ptr %3, align 4
  store i32 1, ptr %8, align 4
  br label %114

24:                                               ; preds = %2
  store i32 0, ptr %7, align 4, !tbaa !9
  br label %25

25:                                               ; preds = %101, %24
  %26 = load i32, ptr %7, align 4, !tbaa !9
  %27 = icmp slt i32 %26, 4
  br i1 %27, label %28, label %104

28:                                               ; preds = %25
  call void @llvm.lifetime.start.p0(i64 4, ptr %9) #5
  %29 = load i32, ptr %7, align 4, !tbaa !9
  %30 = icmp eq i32 %29, 1
  br i1 %30, label %34, label %31

31:                                               ; preds = %28
  %32 = load i32, ptr %7, align 4, !tbaa !9
  %33 = icmp eq i32 %32, 2
  br i1 %33, label %34, label %38

34:                                               ; preds = %31, %28
  %35 = load ptr, ptr %6, align 8, !tbaa !32
  %36 = getelementptr inbounds nuw %struct.FlipContext, ptr %35, i32 0, i32 0
  %37 = load i32, ptr %36, align 4, !tbaa !37
  br label %39

38:                                               ; preds = %31
  br label %39

39:                                               ; preds = %38, %34
  %40 = phi i32 [ %37, %34 ], [ 0, %38 ]
  store i32 %40, ptr %9, align 4, !tbaa !9
  call void @llvm.lifetime.start.p0(i64 4, ptr %10) #5
  %41 = load i32, ptr %9, align 4, !tbaa !9
  %42 = call i1 @llvm.is.constant.i32(i32 %41)
  br i1 %42, label %51, label %43

43:                                               ; preds = %39
  %44 = load ptr, ptr %4, align 8, !tbaa !4
  %45 = getelementptr inbounds nuw %struct.AVFilterLink, ptr %44, i32 0, i32 7
  %46 = load i32, ptr %45, align 4, !tbaa !43
  %47 = sub nsw i32 0, %46
  %48 = load i32, ptr %9, align 4, !tbaa !9
  %49 = ashr i32 %47, %48
  %50 = sub nsw i32 0, %49
  br label %61

51:                                               ; preds = %39
  %52 = load ptr, ptr %4, align 8, !tbaa !4
  %53 = getelementptr inbounds nuw %struct.AVFilterLink, ptr %52, i32 0, i32 7
  %54 = load i32, ptr %53, align 4, !tbaa !43
  %55 = load i32, ptr %9, align 4, !tbaa !9
  %56 = shl i32 1, %55
  %57 = add nsw i32 %54, %56
  %58 = sub nsw i32 %57, 1
  %59 = load i32, ptr %9, align 4, !tbaa !9
  %60 = ashr i32 %58, %59
  br label %61

61:                                               ; preds = %51, %43
  %62 = phi i32 [ %50, %43 ], [ %60, %51 ]
  store i32 %62, ptr %10, align 4, !tbaa !9
  %63 = load ptr, ptr %5, align 8, !tbaa !35
  %64 = getelementptr inbounds nuw %struct.AVFrame, ptr %63, i32 0, i32 0
  %65 = load i32, ptr %7, align 4, !tbaa !9
  %66 = sext i32 %65 to i64
  %67 = getelementptr inbounds [8 x ptr], ptr %64, i64 0, i64 %66
  %68 = load ptr, ptr %67, align 8, !tbaa !39
  %69 = icmp ne ptr %68, null
  br i1 %69, label %70, label %100

70:                                               ; preds = %61
  %71 = load i32, ptr %10, align 4, !tbaa !9
  %72 = sub nsw i32 %71, 1
  %73 = load ptr, ptr %5, align 8, !tbaa !35
  %74 = getelementptr inbounds nuw %struct.AVFrame, ptr %73, i32 0, i32 1
  %75 = load i32, ptr %7, align 4, !tbaa !9
  %76 = sext i32 %75 to i64
  %77 = getelementptr inbounds [8 x i32], ptr %74, i64 0, i64 %76
  %78 = load i32, ptr %77, align 4, !tbaa !9
  %79 = mul nsw i32 %72, %78
  %80 = load ptr, ptr %5, align 8, !tbaa !35
  %81 = getelementptr inbounds nuw %struct.AVFrame, ptr %80, i32 0, i32 0
  %82 = load i32, ptr %7, align 4, !tbaa !9
  %83 = sext i32 %82 to i64
  %84 = getelementptr inbounds [8 x ptr], ptr %81, i64 0, i64 %83
  %85 = load ptr, ptr %84, align 8, !tbaa !39
  %86 = sext i32 %79 to i64
  %87 = getelementptr inbounds i8, ptr %85, i64 %86
  store ptr %87, ptr %84, align 8, !tbaa !39
  %88 = load ptr, ptr %5, align 8, !tbaa !35
  %89 = getelementptr inbounds nuw %struct.AVFrame, ptr %88, i32 0, i32 1
  %90 = load i32, ptr %7, align 4, !tbaa !9
  %91 = sext i32 %90 to i64
  %92 = getelementptr inbounds [8 x i32], ptr %89, i64 0, i64 %91
  %93 = load i32, ptr %92, align 4, !tbaa !9
  %94 = sub nsw i32 0, %93
  %95 = load ptr, ptr %5, align 8, !tbaa !35
  %96 = getelementptr inbounds nuw %struct.AVFrame, ptr %95, i32 0, i32 1
  %97 = load i32, ptr %7, align 4, !tbaa !9
  %98 = sext i32 %97 to i64
  %99 = getelementptr inbounds [8 x i32], ptr %96, i64 0, i64 %98
  store i32 %94, ptr %99, align 4, !tbaa !9
  br label %100

100:                                              ; preds = %70, %61
  call void @llvm.lifetime.end.p0(i64 4, ptr %10) #5
  call void @llvm.lifetime.end.p0(i64 4, ptr %9) #5
  br label %101

101:                                              ; preds = %100
  %102 = load i32, ptr %7, align 4, !tbaa !9
  %103 = add nsw i32 %102, 1
  store i32 %103, ptr %7, align 4, !tbaa !9
  br label %25, !llvm.loop !44

104:                                              ; preds = %25
  %105 = load ptr, ptr %4, align 8, !tbaa !4
  %106 = getelementptr inbounds nuw %struct.AVFilterLink, ptr %105, i32 0, i32 2
  %107 = load ptr, ptr %106, align 8, !tbaa !11
  %108 = getelementptr inbounds nuw %struct.AVFilterContext, ptr %107, i32 0, i32 7
  %109 = load ptr, ptr %108, align 8, !tbaa !34
  %110 = getelementptr inbounds ptr, ptr %109, i64 0
  %111 = load ptr, ptr %110, align 8, !tbaa !4
  %112 = load ptr, ptr %5, align 8, !tbaa !35
  %113 = call i32 @ff_filter_frame(ptr noundef %111, ptr noundef %112)
  store i32 %113, ptr %3, align 4
  store i32 1, ptr %8, align 4
  br label %114

114:                                              ; preds = %104, %20
  call void @llvm.lifetime.end.p0(i64 4, ptr %7) #5
  call void @llvm.lifetime.end.p0(i64 8, ptr %6) #5
  %115 = load i32, ptr %3, align 4
  ret i32 %115
}