; Function Attrs: nounwind uwtable
define internal i32 @filter_frame(ptr noundef readonly captures(none) %0, ptr noundef %1) #0 {
  %3 = alloca ptr, align 8
  %4 = getelementptr inbounds nuw i8, ptr %0, i64 16
  %5 = load ptr, ptr %4, align 8, !tbaa !4
  %6 = getelementptr inbounds nuw i8, ptr %5, i64 72
  %7 = load ptr, ptr %6, align 8, !tbaa !19
  %8 = getelementptr inbounds nuw i8, ptr %7, i64 4
  %9 = load i32, ptr %8, align 4, !tbaa !38
  %.not = icmp eq i32 %9, 0
  br i1 %.not, label %.preheader, label %12

.preheader:                                       ; preds = %2
  %10 = getelementptr inbounds nuw i8, ptr %0, i64 44
  %11 = getelementptr inbounds nuw i8, ptr %1, i64 64
  br label %68

12:                                               ; preds = %2
  %13 = getelementptr i8, ptr %0, i64 36
  %.val32 = load i32, ptr %13, align 4, !tbaa !39
  call void @llvm.lifetime.start.p0(i64 8, ptr nonnull %3)
  store ptr %1, ptr %3, align 8, !tbaa !40
  %14 = getelementptr inbounds nuw i8, ptr %5, i64 56
  %15 = load ptr, ptr %14, align 8, !tbaa !29
  %16 = load ptr, ptr %15, align 8, !tbaa !30
  %17 = load ptr, ptr %1, align 8, !tbaa !34
  %18 = getelementptr inbounds nuw i8, ptr %16, i64 40
  %19 = load i32, ptr %18, align 8, !tbaa !42
  %20 = tail call ptr @av_pix_fmt_desc_get(i32 noundef %.val32) #4
  %21 = getelementptr inbounds nuw i8, ptr %20, i64 28
  %22 = load i32, ptr %21, align 4, !tbaa !43
  %23 = icmp sgt i32 %22, 1
  %24 = zext i1 %23 to i32
  %25 = shl i32 %19, %24
  %26 = getelementptr inbounds nuw i8, ptr %16, i64 44
  %27 = load i32, ptr %26, align 4, !tbaa !45
  %28 = and i32 %27, 1
  %.not.i = icmp eq i32 %28, 0
  br i1 %.not.i, label %30, label %29

29:                                               ; preds = %12
  tail call void (ptr, i32, ptr, ...) @av_log(ptr noundef nonnull %5, i32 noundef 16, ptr noundef nonnull @.str.3) #4
  br label %flip_bayer.exit

30:                                               ; preds = %12
  %31 = load i32, ptr %18, align 8, !tbaa !42
  %32 = tail call ptr @ff_get_video_buffer(ptr noundef nonnull %16, i32 noundef %31, i32 noundef %27) #4
  %.not33.i = icmp eq ptr %32, null
  br i1 %.not33.i, label %33, label %34

33:                                               ; preds = %30
  call void @av_frame_free(ptr noundef nonnull %3) #4
  br label %flip_bayer.exit

34:                                               ; preds = %30
  %35 = tail call i32 @av_frame_copy_props(ptr noundef nonnull %32, ptr noundef nonnull %1) #4
  %36 = getelementptr inbounds nuw i8, ptr %32, i64 64
  %37 = load i32, ptr %26, align 4, !tbaa !45
  %38 = icmp sgt i32 %37, 1
  br i1 %38, label %.lr.ph.i, label %._crit_edge.i

.lr.ph.i:                                         ; preds = %34
  %39 = load ptr, ptr %32, align 8, !tbaa !34
  %40 = add nsw i32 %37, -2
  %41 = load i32, ptr %36, align 8, !tbaa !35
  %42 = mul nsw i32 %41, %40
  %43 = sext i32 %42 to i64
  %44 = getelementptr inbounds i8, ptr %39, i64 %43
  %45 = sext i32 %25 to i64
  %46 = getelementptr inbounds nuw i8, ptr %1, i64 64
  br label %47

47:                                               ; preds = %47, %.lr.ph.i
  %.0293.i = phi i32 [ 0, %.lr.ph.i ], [ %63, %47 ]
  %.0302.i = phi ptr [ %44, %.lr.ph.i ], [ %62, %47 ]
  %.0311.i = phi ptr [ %17, %.lr.ph.i ], [ %57, %47 ]
  tail call void @llvm.memcpy.p0.p0.i64(ptr align 1 %.0302.i, ptr align 1 %.0311.i, i64 %45, i1 false)
  %48 = load i32, ptr %36, align 8, !tbaa !35
  %49 = sext i32 %48 to i64
  %50 = getelementptr inbounds i8, ptr %.0302.i, i64 %49
  %51 = load i32, ptr %46, align 8, !tbaa !35
  %52 = sext i32 %51 to i64
  %53 = getelementptr inbounds i8, ptr %.0311.i, i64 %52
  tail call void @llvm.memcpy.p0.p0.i64(ptr align 1 %50, ptr align 1 %53, i64 %45, i1 false)
  %54 = load i32, ptr %46, align 8, !tbaa !35
  %55 = shl nsw i32 %54, 1
  %56 = sext i32 %55 to i64
  %57 = getelementptr inbounds i8, ptr %.0311.i, i64 %56
  %58 = load i32, ptr %36, align 8, !tbaa !35
  %59 = shl nsw i32 %58, 1
  %60 = sext i32 %59 to i64
  %61 = sub nsw i64 0, %60
  %62 = getelementptr inbounds i8, ptr %.0302.i, i64 %61
  %63 = add nuw nsw i32 %.0293.i, 1
  %64 = load i32, ptr %26, align 4, !tbaa !45
  %65 = ashr i32 %64, 1
  %66 = icmp slt i32 %63, %65
  br i1 %66, label %47, label %._crit_edge.i, !llvm.loop !46

._crit_edge.i:                                    ; preds = %47, %34
  call void @av_frame_free(ptr noundef nonnull %3) #4
  %67 = call i32 @ff_filter_frame(ptr noundef nonnull %16, ptr noundef nonnull %32) #4
  br label %flip_bayer.exit

flip_bayer.exit:                                  ; preds = %29, %33, %._crit_edge.i
  %.0.i = phi i32 [ -1094995529, %29 ], [ %67, %._crit_edge.i ], [ -12, %33 ]
  call void @llvm.lifetime.end.p0(i64 8, ptr nonnull %3)
  br label %93

68:                                               ; preds = %.preheader, %87
  %indvars.iv = phi i64 [ 0, %.preheader ], [ %indvars.iv.next, %87 ]
  %69 = trunc i64 %indvars.iv to i32
  %70 = add i32 %69, -1
  %or.cond = icmp ult i32 %70, 2
  br i1 %or.cond, label %71, label %73

71:                                               ; preds = %68
  %72 = load i32, ptr %7, align 4, !tbaa !32
  br label %73

73:                                               ; preds = %71, %68
  %74 = phi i32 [ %72, %71 ], [ 0, %68 ]
  %75 = getelementptr inbounds nuw [8 x ptr], ptr %1, i64 0, i64 %indvars.iv
  %76 = load ptr, ptr %75, align 8, !tbaa !34
  %.not31 = icmp eq ptr %76, null
  br i1 %.not31, label %87, label %77

77:                                               ; preds = %73
  %78 = load i32, ptr %10, align 4, !tbaa !45
  %79 = add i32 %78, -1
  %80 = ashr i32 %79, %74
  %81 = getelementptr inbounds nuw [8 x i32], ptr %11, i64 0, i64 %indvars.iv
  %82 = load i32, ptr %81, align 4, !tbaa !35
  %83 = mul nsw i32 %82, %80
  %84 = sext i32 %83 to i64
  %85 = getelementptr inbounds i8, ptr %76, i64 %84
  store ptr %85, ptr %75, align 8, !tbaa !34
  %86 = sub nsw i32 0, %82
  store i32 %86, ptr %81, align 4, !tbaa !35
  br label %87

87:                                               ; preds = %77, %73
  %indvars.iv.next = add nuw nsw i64 %indvars.iv, 1
  %exitcond.not = icmp eq i64 %indvars.iv.next, 4
  br i1 %exitcond.not, label %88, label %68, !llvm.loop !47

88:                                               ; preds = %87
  %89 = getelementptr inbounds nuw i8, ptr %5, i64 56
  %90 = load ptr, ptr %89, align 8, !tbaa !29
  %91 = load ptr, ptr %90, align 8, !tbaa !30
  %92 = tail call i32 @ff_filter_frame(ptr noundef %91, ptr noundef nonnull %1) #4
  br label %93

93:                                               ; preds = %88, %flip_bayer.exit
  %.0 = phi i32 [ %.0.i, %flip_bayer.exit ], [ %92, %88 ]
  ret i32 %.0
}